(dp0
S'fo_limit'
p1
I78
sS'char_limit'
p2
I82
sS'7_place_holder_six'
p3
(dp4
S'min_count'
p5
I2
sS'limit'
p6
I76
sS'size'
p7
I3793
ssS'six_limit'
p8
I76
sS'6_place_holder_five'
p9
(dp10
g5
I2
sg6
I77
sg7
I980
ssS'5_place_holder_fo'
p11
(dp12
g5
I3
sg6
I78
sg7
I240
ssS'five_limit'
p13
I77
sS'limit_label'
p14
I2
sS'4_place_holder_tri'
p15
(dp16
g5
I3
sg6
I79
sg7
I60
ssS'tri_limit'
p17
I79
sS'uni_limit'
p18
I82
sS'portion'
p19
F0.0
sS'total_train'
p20
I1079
sS'3_place_holder_bi'
p21
(dp22
g5
I3
sg6
I80
sg7
I15
ssS'2_place_holder_uni'
p23
(dp24
g5
I5
sg6
I82
sg7
I7
ssS'1_place_holder_char'
p25
(dp26
g5
I5
sg6
I82
sg7
I7
ssS'bi_limit'
p27
I80
s.